target datalayout = "e-m:e-p270:32:32-p271:32:32-p272:64:64-i64:64-i128:128-f80:128-n8:16:32:64-S128"
target triple = "x86_64-pc-linux-gnu"

@.str = private unnamed_addr constant [38 x i8] c"short address (no length for payload)\00", align 1

; Function Attrs: null_pointer_is_valid sspstrong uwtable
define hidden void @isis_dissect_instance_identifier_clv(ptr noundef %0, ptr noundef %1, ptr noundef %2, ptr noundef %3, i32 noundef %4, i32 noundef %5, i32 noundef %6, i32 noundef %7) #0 {
  %9 = alloca ptr, align 8
  %10 = alloca ptr, align 8
  %11 = alloca ptr, align 8
  %12 = alloca ptr, align 8
  %13 = alloca i32, align 4
  %14 = alloca i32, align 4
  %15 = alloca i32, align 4
  %16 = alloca i32, align 4
  store ptr %0, ptr %9, align 8
  store ptr %1, ptr %10, align 8
  store ptr %2, ptr %11, align 8
  store ptr %3, ptr %12, align 8
  store i32 %4, ptr %13, align 4
  store i32 %5, ptr %14, align 4
  store i32 %6, ptr %15, align 4
  store i32 %7, ptr %16, align 4
  %17 = load i32, ptr %16, align 4
  %18 = add i32 %17, -1
  store i32 %18, ptr %16, align 4
  %19 = load i32, ptr %16, align 4
  %20 = icmp sle i32 %19, 0
  br i1 %20, label %21, label %28

21:                                               ; preds = %8
  %22 = load ptr, ptr %9, align 8
  %23 = load ptr, ptr %10, align 8
  %24 = load ptr, ptr %12, align 8
  %25 = load ptr, ptr %11, align 8
  %26 = load i32, ptr %15, align 4
  %27 = call ptr (ptr, ptr, ptr, ptr, i32, i32, ptr, ...) @proto_tree_add_expert_format(ptr noundef %22, ptr noundef %23, ptr noundef %24, ptr noundef %25, i32 noundef %26, i32 noundef -1, ptr noundef @.str)
  br label %51

28:                                               ; preds = %8
  %29 = load ptr, ptr %9, align 8
  %30 = load i32, ptr %13, align 4
  %31 = load ptr, ptr %11, align 8
  %32 = load i32, ptr %15, align 4
  %33 = call ptr @proto_tree_add_item(ptr noundef %29, i32 noundef %30, ptr noundef %31, i32 noundef %32, i32 noundef 2, i32 noundef 0)
  %34 = load i32, ptr %15, align 4
  %35 = add i32 %34, 2
  store i32 %35, ptr %15, align 4
  %36 = load i32, ptr %16, align 4
  %37 = sub i32 %36, 2
  store i32 %37, ptr %16, align 4
  br label %38

38:                                               ; preds = %41, %28
  %39 = load i32, ptr %16, align 4
  %40 = icmp sgt i32 %39, 0
  br i1 %40, label %41, label %51

41:                                               ; preds = %38
  %42 = load ptr, ptr %9, align 8
  %43 = load i32, ptr %14, align 4
  %44 = load ptr, ptr %11, align 8
  %45 = load i32, ptr %15, align 4
  %46 = call ptr @proto_tree_add_item(ptr noundef %42, i32 noundef %43, ptr noundef %44, i32 noundef %45, i32 noundef 2, i32 noundef 0)
  %47 = load i32, ptr %15, align 4
  %48 = add i32 %47, 2
  store i32 %48, ptr %15, align 4
  %49 = load i32, ptr %16, align 4
  %50 = sub i32 %49, 2
  store i32 %50, ptr %16, align 4
  br label %38, !llvm.loop !9

51:                                               ; preds = %21, %38
  ret void
}