; Function Attrs: null_pointer_is_valid sspstrong uwtable
define hidden void @isis_dissect_instance_identifier_clv(ptr noundef %0, ptr noundef %1, ptr noundef %2, ptr noundef %3, i32 noundef %4, i32 noundef %5, i32 noundef %6, i32 noundef %7) local_unnamed_addr #0 {
  %9 = add i32 %7, -1
  %10 = icmp slt i32 %9, 1
  br i1 %10, label %11, label %13

11:                                               ; preds = %8
  %12 = tail call ptr (ptr, ptr, ptr, ptr, i32, i32, ptr, ...) @proto_tree_add_expert_format(ptr noundef %0, ptr noundef %1, ptr noundef %3, ptr noundef %2, i32 noundef %6, i32 noundef -1, ptr noundef nonnull @.str)
  br label %.loopexit

13:                                               ; preds = %8
  %14 = tail call ptr @proto_tree_add_item(ptr noundef %0, i32 noundef %4, ptr noundef %2, i32 noundef %6, i32 noundef 2, i32 noundef 0)
  %15 = add i32 %7, -3
  %16 = icmp sgt i32 %15, 0
  br i1 %16, label %.lr.ph, label %.loopexit

.lr.ph:                                           ; preds = %13, %.lr.ph
  %.022 = phi i32 [ %18, %.lr.ph ], [ %15, %13 ]
  %.019.in21 = phi i32 [ %.019, %.lr.ph ], [ %6, %13 ]
  %.019 = add i32 %.019.in21, 2
  %17 = tail call ptr @proto_tree_add_item(ptr noundef %0, i32 noundef %5, ptr noundef %2, i32 noundef %.019, i32 noundef 2, i32 noundef 0)
  %18 = add nsw i32 %.022, -2
  %19 = icmp samesign ugt i32 %.022, 2
  br i1 %19, label %.lr.ph, label %.loopexit, !llvm.loop !9

.loopexit:                                        ; preds = %.lr.ph, %13, %11
  ret void
}